target datalayout = "e-m:e-p270:32:32-p271:32:32-p272:64:64-i64:64-i128:128-f80:128-n8:16:32:64-S128"
target triple = "x86_64-pc-linux-gnu"

%struct.strvec = type { ptr, i64, i64 }
%struct.strbuf = type { i64, i64, ptr }
%struct.oidset = type { %struct.kh_oid_set }
%struct.kh_oid_set = type { i32, i32, i32, i32, ptr, ptr, ptr }
%struct.rev_info = type { ptr, %struct.object_array, ptr, %struct.object_array, %struct.rev_cmdline_info, %struct.list_objects_filter_options, %struct.ref_exclusions, ptr, ptr, ptr, %struct.pathspec, i32, i32, i32, i32, i64, i32, i32, %struct.date_mode, i32, i32, i32, i32, ptr, i32, i32, ptr, ptr, i32, ptr, ptr, %struct.ident_split, ptr, i32, ptr, ptr, ptr, i32, i32, i32, ptr, %struct.grep_opt, ptr, i32, i32, i64, i64, i64, i32, i32, ptr, ptr, ptr, %struct.diff_options, %struct.diff_options, ptr, %struct.decoration, %struct.decoration, %struct.decoration, %struct.display_notes_opt, ptr, ptr, ptr, ptr, ptr, i32, ptr, i32, i32, i32, %struct.decoration, ptr, ptr, ptr, ptr, ptr, ptr, ptr, i32, ptr, i32, ptr, %struct.oidset }
%struct.object_array = type { i32, i32, ptr }
%struct.rev_cmdline_info = type { i32, i32, ptr }
%struct.list_objects_filter_options = type { %struct.strbuf, i32, i8, ptr, i64, i64, i32, i64, i64, ptr }
%struct.ref_exclusions = type { %struct.string_list, %struct.strvec, i8 }
%struct.string_list = type { ptr, i64, i64, i8, ptr }
%struct.pathspec = type { i32, i8, i32, i32, ptr }
%struct.date_mode = type { i32, i32, ptr }
%struct.ident_split = type { ptr, ptr, ptr, ptr, ptr, ptr, ptr, ptr }
%struct.grep_opt = type { ptr, ptr, ptr, ptr, ptr, ptr, i32, i32, i32, i32, i32, i32, i32, i32, i32, i32, i32, i32, i32, i32, i32, i32, i32, i32, i32, i32, i32, i32, i32, i32, i32, i32, [9 x [75 x i8]], i32, i32, i32, i32, i32, i32, i32, ptr, ptr, ptr }
%struct.diff_options = type { ptr, ptr, i32, i32, ptr, i32, ptr, i64, i64, ptr, ptr, ptr, ptr, %struct.diff_flags, i32, i32, i32, i32, i32, i32, i32, i32, i32, i32, i32, i32, i32, i32, i32, i32, i32, i32, i32, i32, i32, i32, ptr, i32, ptr, i32, i32, ptr, i64, i64, i32, i32, i32, i32, ptr, i32, i32, ptr, i32, i32, ptr, ptr, i32, [3 x i8], %struct.pathspec, ptr, ptr, ptr, ptr, ptr, ptr, ptr, ptr, i32, ptr, i32, i32, ptr, ptr, i32 }
%struct.diff_flags = type { i32, i32, i32, i32, i32, i32, i32, i32, i32, i32, i32, i32, i32, i32, i32, i32, i32, i32, i32, i32, i32, i32, i32, i32, i32, i32, i32, i32, i32, i32, i32, i32, i32, i32, i32 }
%struct.display_notes_opt = type { i32, %struct.string_list }
%struct.decoration = type { ptr, i32, i32, ptr }
%struct.interpret_branch_name_options = type { i32, i8 }

@the_repository = external global ptr, align 8
@__const.add_pending_object_with_path.buf = private unnamed_addr constant %struct.strbuf { i64 0, i64 0, ptr @strbuf_slopbuf }, align 8

; Function Attrs: inlinehint nounwind uwtable
define internal void @strbuf_addstr(ptr noundef %0, ptr noundef %1) #4 {
  %3 = alloca ptr, align 8
  %4 = alloca ptr, align 8
  store ptr %0, ptr %3, align 8, !tbaa !398
  store ptr %1, ptr %4, align 8, !tbaa !39
  %5 = load ptr, ptr %3, align 8, !tbaa !398
  %6 = load ptr, ptr %4, align 8, !tbaa !39
  %7 = load ptr, ptr %4, align 8, !tbaa !39
  %8 = call i64 @strlen(ptr noundef %7) #14
  call void @strbuf_add(ptr noundef %5, ptr noundef %6, i64 noundef %8)
  ret void
}

; Function Attrs: nounwind uwtable
define internal void @add_pending_object_with_path(ptr noundef %0, ptr noundef %1, ptr noundef %2, i32 noundef %3, ptr noundef %4) #0 {
  %6 = alloca ptr, align 8
  %7 = alloca ptr, align 8
  %8 = alloca ptr, align 8
  %9 = alloca i32, align 4
  %10 = alloca ptr, align 8
  %11 = alloca %struct.interpret_branch_name_options, align 4
  %12 = alloca i32, align 4
  %13 = alloca %struct.strbuf, align 8
  %14 = alloca i64, align 8
  %15 = alloca i32, align 4
  store ptr %0, ptr %6, align 8, !tbaa !88
  store ptr %1, ptr %7, align 8, !tbaa !37
  store ptr %2, ptr %8, align 8, !tbaa !39
  store i32 %3, ptr %9, align 4, !tbaa !9
  store ptr %4, ptr %10, align 8, !tbaa !39
  call void @llvm.lifetime.start.p0(i64 8, ptr %11) #12
  call void @llvm.memset.p0.i64(ptr align 4 %11, i8 0, i64 8, i1 false)
  %16 = load ptr, ptr %7, align 8, !tbaa !37
  %17 = icmp ne ptr %16, null
  br i1 %17, label %19, label %18

18:                                               ; preds = %5
  store i32 1, ptr %12, align 4
  br label %100

19:                                               ; preds = %5
  %20 = load ptr, ptr %6, align 8, !tbaa !88
  %21 = getelementptr inbounds nuw %struct.rev_info, ptr %20, i32 0, i32 15
  %22 = load i64, ptr %21, align 8
  %23 = lshr i64 %22, 4
  %24 = and i64 %23, 1
  %25 = trunc i64 %24 to i32
  %26 = icmp ne i32 %25, 0
  br i1 %26, label %27, label %39

27:                                               ; preds = %19
  %28 = load ptr, ptr %7, align 8, !tbaa !37
  %29 = load i32, ptr %28, align 4
  %30 = lshr i32 %29, 4
  %31 = and i32 %30, 2
  %32 = icmp ne i32 %31, 0
  br i1 %32, label %33, label %39

33:                                               ; preds = %27
  %34 = load ptr, ptr %6, align 8, !tbaa !88
  %35 = getelementptr inbounds nuw %struct.rev_info, ptr %34, i32 0, i32 15
  %36 = load i64, ptr %35, align 8
  %37 = and i64 %36, -17
  %38 = or i64 %37, 0
  store i64 %38, ptr %35, align 8
  br label %39

39:                                               ; preds = %33, %27, %19
  %40 = load ptr, ptr %6, align 8, !tbaa !88
  %41 = getelementptr inbounds nuw %struct.rev_info, ptr %40, i32 0, i32 55
  %42 = load ptr, ptr %41, align 8, !tbaa !291
  %43 = icmp ne ptr %42, null
  br i1 %43, label %44, label %93

44:                                               ; preds = %39
  %45 = load ptr, ptr %7, align 8, !tbaa !37
  %46 = load i32, ptr %45, align 4
  %47 = lshr i32 %46, 1
  %48 = and i32 %47, 7
  %49 = icmp eq i32 %48, 1
  br i1 %49, label %50, label %93

50:                                               ; preds = %44
  call void @llvm.lifetime.start.p0(i64 24, ptr %13) #12
  call void @llvm.memcpy.p0.p0.i64(ptr align 8 %13, ptr align 8 @__const.add_pending_object_with_path.buf, i64 24, i1 false)
  call void @llvm.lifetime.start.p0(i64 8, ptr %14) #12
  %51 = load ptr, ptr %8, align 8, !tbaa !39
  %52 = call i64 @strlen(ptr noundef %51) #14
  store i64 %52, ptr %14, align 8, !tbaa !34
  call void @llvm.lifetime.start.p0(i64 4, ptr %15) #12
  %53 = load ptr, ptr @the_repository, align 8, !tbaa !43
  %54 = load ptr, ptr %8, align 8, !tbaa !39
  %55 = load i64, ptr %14, align 8, !tbaa !34
  %56 = trunc i64 %55 to i32
  %57 = call i32 @repo_interpret_branch_name(ptr noundef %53, ptr noundef %54, i32 noundef %56, ptr noundef %13, ptr noundef %11)
  store i32 %57, ptr %15, align 4, !tbaa !9
  %58 = load i32, ptr %15, align 4, !tbaa !9
  %59 = icmp slt i32 0, %58
  br i1 %59, label %60, label %74

60:                                               ; preds = %50
  %61 = load i32, ptr %15, align 4, !tbaa !9
  %62 = sext i32 %61 to i64
  %63 = load i64, ptr %14, align 8, !tbaa !34
  %64 = icmp ult i64 %62, %63
  br i1 %64, label %65, label %74

65:                                               ; preds = %60
  %66 = getelementptr inbounds nuw %struct.strbuf, ptr %13, i32 0, i32 1
  %67 = load i64, ptr %66, align 8, !tbaa !298
  %68 = icmp ne i64 %67, 0
  br i1 %68, label %69, label %74

69:                                               ; preds = %65
  %70 = load ptr, ptr %8, align 8, !tbaa !39
  %71 = load i32, ptr %15, align 4, !tbaa !9
  %72 = sext i32 %71 to i64
  %73 = getelementptr inbounds i8, ptr %70, i64 %72
  call void @strbuf_addstr(ptr noundef %13, ptr noundef %73)
  br label %74

74:                                               ; preds = %69, %65, %60, %50
  %75 = load ptr, ptr %6, align 8, !tbaa !88
  %76 = getelementptr inbounds nuw %struct.rev_info, ptr %75, i32 0, i32 55
  %77 = load ptr, ptr %76, align 8, !tbaa !291
  %78 = load ptr, ptr %7, align 8, !tbaa !37
  %79 = getelementptr inbounds nuw %struct.strbuf, ptr %13, i32 0, i32 2
  %80 = load ptr, ptr %79, align 8, !tbaa !167
  %81 = getelementptr inbounds i8, ptr %80, i64 0
  %82 = load i8, ptr %81, align 1, !tbaa !41
  %83 = sext i8 %82 to i32
  %84 = icmp ne i32 %83, 0
  br i1 %84, label %85, label %88

85:                                               ; preds = %74
  %86 = getelementptr inbounds nuw %struct.strbuf, ptr %13, i32 0, i32 2
  %87 = load ptr, ptr %86, align 8, !tbaa !167
  br label %90

88:                                               ; preds = %74
  %89 = load ptr, ptr %8, align 8, !tbaa !39
  br label %90

90:                                               ; preds = %88, %85
  %91 = phi ptr [ %87, %85 ], [ %89, %88 ]
  %92 = call i32 @add_reflog_for_walk(ptr noundef %77, ptr noundef %78, ptr noundef %91)
  call void @strbuf_release(ptr noundef %13)
  store i32 1, ptr %12, align 4
  call void @llvm.lifetime.end.p0(i64 4, ptr %15) #12
  call void @llvm.lifetime.end.p0(i64 8, ptr %14) #12
  call void @llvm.lifetime.end.p0(i64 24, ptr %13) #12
  br label %100

93:                                               ; preds = %44, %39
  %94 = load ptr, ptr %7, align 8, !tbaa !37
  %95 = load ptr, ptr %8, align 8, !tbaa !39
  %96 = load ptr, ptr %6, align 8, !tbaa !88
  %97 = getelementptr inbounds nuw %struct.rev_info, ptr %96, i32 0, i32 1
  %98 = load i32, ptr %9, align 4, !tbaa !9
  %99 = load ptr, ptr %10, align 8, !tbaa !39
  call void @add_object_array_with_path(ptr noundef %94, ptr noundef %95, ptr noundef %97, i32 noundef %98, ptr noundef %99)
  store i32 0, ptr %12, align 4
  br label %100

100:                                              ; preds = %93, %90, %18
  call void @llvm.lifetime.end.p0(i64 8, ptr %11) #12
  %101 = load i32, ptr %12, align 4
  switch i32 %101, label %103 [
    i32 0, label %102
    i32 1, label %102
  ]

102:                                              ; preds = %100, %100
  ret void

103:                                              ; preds = %100
  unreachable
}