; Function Attrs: nounwind uwtable
define internal fastcc void @add_pending_object_with_path(ptr noundef %0, ptr noundef %1, ptr noundef %2, i32 noundef %3, ptr noundef %4) unnamed_addr #2 {
  %6 = alloca %struct.interpret_branch_name_options, align 8
  %7 = alloca %struct.strbuf, align 8
  call void @llvm.lifetime.start.p0(i64 8, ptr nonnull %6) #26
  store i64 0, ptr %6, align 8
  %.not = icmp eq ptr %1, null
  br i1 %.not, label %48, label %8

8:                                                ; preds = %5
  %9 = getelementptr inbounds nuw i8, ptr %0, i64 288
  %10 = load i64, ptr %9, align 8
  %11 = and i64 %10, 16
  %.not25 = icmp eq i64 %11, 0
  br i1 %.not25, label %17, label %12

12:                                               ; preds = %8
  %13 = load i32, ptr %1, align 4
  %14 = and i32 %13, 32
  %.not26 = icmp eq i32 %14, 0
  br i1 %.not26, label %17, label %15

15:                                               ; preds = %12
  %16 = and i64 %10, -17
  store i64 %16, ptr %9, align 8
  br label %17

17:                                               ; preds = %15, %12, %8
  %18 = getelementptr inbounds nuw i8, ptr %0, i64 2656
  %19 = load ptr, ptr %18, align 8, !tbaa !175
  %.not27 = icmp eq ptr %19, null
  br i1 %.not27, label %46, label %20

20:                                               ; preds = %17
  %21 = load i32, ptr %1, align 4
  %22 = and i32 %21, 14
  %23 = icmp eq i32 %22, 2
  br i1 %23, label %24, label %46

24:                                               ; preds = %20
  call void @llvm.lifetime.start.p0(i64 24, ptr nonnull %7) #26
  call void @llvm.memcpy.p0.p0.i64(ptr noundef nonnull align 8 dereferenceable(24) %7, ptr noundef nonnull align 8 dereferenceable(24) @__const.commit_match.buf, i64 24, i1 false)
  %25 = tail call i64 @strlen(ptr noundef nonnull dereferenceable(1) %2) #27
  %26 = load ptr, ptr @the_repository, align 8, !tbaa !71
  %27 = trunc i64 %25 to i32
  %28 = call i32 @repo_interpret_branch_name(ptr noundef %26, ptr noundef nonnull %2, i32 noundef %27, ptr noundef nonnull %7, ptr noundef nonnull %6) #26
  %29 = icmp sgt i32 %28, 0
  br i1 %29, label %30, label %39

30:                                               ; preds = %24
  %31 = zext nneg i32 %28 to i64
  %32 = icmp ugt i64 %25, %31
  %33 = getelementptr inbounds nuw i8, ptr %7, i64 8
  %34 = load i64, ptr %33, align 8
  %35 = icmp ne i64 %34, 0
  %or.cond = select i1 %32, i1 %35, i1 false
  br i1 %or.cond, label %36, label %39

36:                                               ; preds = %30
  %37 = getelementptr inbounds nuw i8, ptr %2, i64 %31
  %38 = call i64 @strlen(ptr noundef nonnull dereferenceable(1) %37) #27
  call void @strbuf_add(ptr noundef nonnull %7, ptr noundef nonnull %37, i64 noundef %38) #26
  br label %39

39:                                               ; preds = %36, %30, %24
  %40 = load ptr, ptr %18, align 8, !tbaa !175
  %41 = getelementptr inbounds nuw i8, ptr %7, i64 16
  %42 = load ptr, ptr %41, align 8, !tbaa !134
  %43 = load i8, ptr %42, align 1, !tbaa !28
  %.not28 = icmp eq i8 %43, 0
  %44 = select i1 %.not28, ptr %2, ptr %42
  %45 = call i32 @add_reflog_for_walk(ptr noundef %40, ptr noundef nonnull %1, ptr noundef nonnull %44) #26
  call void @strbuf_release(ptr noundef nonnull %7) #26
  call void @llvm.lifetime.end.p0(i64 24, ptr nonnull %7) #26
  br label %48

46:                                               ; preds = %20, %17
  %47 = getelementptr inbounds nuw i8, ptr %0, i64 8
  tail call void @add_object_array_with_path(ptr noundef nonnull %1, ptr noundef %2, ptr noundef nonnull %47, i32 noundef %3, ptr noundef %4) #26
  br label %48

48:                                               ; preds = %5, %46, %39
  call void @llvm.lifetime.end.p0(i64 8, ptr nonnull %6) #26
  ret void
}